target datalayout = "e-m:e-p270:32:32-p271:32:32-p272:64:64-i64:64-i128:128-f80:128-n8:16:32:64-S128"
target triple = "x86_64-pc-linux-gnu"

; Function Attrs: nounwind uwtable
define hidden i32 @mi_dupenv_s(ptr noundef %0, ptr noundef %1, ptr noundef %2) #0 {
  %4 = alloca i32, align 4
  %5 = alloca ptr, align 8
  %6 = alloca ptr, align 8
  %7 = alloca ptr, align 8
  %8 = alloca ptr, align 8
  %9 = alloca i32, align 4
  store ptr %0, ptr %5, align 8, !tbaa !21
  store ptr %1, ptr %6, align 8, !tbaa !23
  store ptr %2, ptr %7, align 8, !tbaa !19
  %10 = load ptr, ptr %5, align 8, !tbaa !21
  %11 = icmp eq ptr %10, null
  br i1 %11, label %15, label %12

12:                                               ; preds = %3
  %13 = load ptr, ptr %7, align 8, !tbaa !19
  %14 = icmp eq ptr %13, null
  br i1 %14, label %15, label %16

15:                                               ; preds = %12, %3
  store i32 22, ptr %4, align 4
  br label %46

16:                                               ; preds = %12
  %17 = load ptr, ptr %6, align 8, !tbaa !23
  %18 = icmp ne ptr %17, null
  br i1 %18, label %19, label %21

19:                                               ; preds = %16
  %20 = load ptr, ptr %6, align 8, !tbaa !23
  store i64 0, ptr %20, align 8, !tbaa !7
  br label %21

21:                                               ; preds = %19, %16
  call void @llvm.lifetime.start.p0(i64 8, ptr %8) #9
  %22 = load ptr, ptr %7, align 8, !tbaa !19
  %23 = call ptr @getenv(ptr noundef %22) #11
  store ptr %23, ptr %8, align 8, !tbaa !19
  %24 = load ptr, ptr %8, align 8, !tbaa !19
  %25 = icmp eq ptr %24, null
  br i1 %25, label %26, label %28

26:                                               ; preds = %21
  %27 = load ptr, ptr %5, align 8, !tbaa !21
  store ptr null, ptr %27, align 8, !tbaa !19
  br label %44

28:                                               ; preds = %21
  %29 = load ptr, ptr %8, align 8, !tbaa !19
  %30 = call noalias ptr @mi_strdup(ptr noundef %29) #8
  %31 = load ptr, ptr %5, align 8, !tbaa !21
  store ptr %30, ptr %31, align 8, !tbaa !19
  %32 = load ptr, ptr %5, align 8, !tbaa !21
  %33 = load ptr, ptr %32, align 8, !tbaa !19
  %34 = icmp eq ptr %33, null
  br i1 %34, label %35, label %36

35:                                               ; preds = %28
  store i32 12, ptr %4, align 4
  store i32 1, ptr %9, align 4
  br label %45

36:                                               ; preds = %28
  %37 = load ptr, ptr %6, align 8, !tbaa !23
  %38 = icmp ne ptr %37, null
  br i1 %38, label %39, label %43

39:                                               ; preds = %36
  %40 = load ptr, ptr %8, align 8, !tbaa !19
  %41 = call i64 @_mi_strlen(ptr noundef %40) #8
  %42 = load ptr, ptr %6, align 8, !tbaa !23
  store i64 %41, ptr %42, align 8, !tbaa !7
  br label %43

43:                                               ; preds = %39, %36
  br label %44

44:                                               ; preds = %43, %26
  store i32 0, ptr %4, align 4
  store i32 1, ptr %9, align 4
  br label %45

45:                                               ; preds = %44, %35
  call void @llvm.lifetime.end.p0(i64 8, ptr %8) #9
  br label %46

46:                                               ; preds = %45, %15
  %47 = load i32, ptr %4, align 4
  ret i32 %47
}